target datalayout = "e-m:e-p270:32:32-p271:32:32-p272:64:64-i64:64-i128:128-f80:128-n8:16:32:64-S128"
target triple = "x86_64-pc-linux-gnu"

%struct._lv_switch_t = type { %struct._lv_obj_t, i32, i8 }
%struct._lv_obj_t = type { ptr, ptr, ptr, ptr, ptr, %struct.lv_area_t, i32, i16, i16 }
%struct.lv_area_t = type { i32, i32, i32, i32 }

; Function Attrs: nounwind uwtable
define internal void @lv_switch_constructor(ptr noundef %0, ptr noundef %1) #0 {
  %3 = alloca ptr, align 8
  %4 = alloca ptr, align 8
  %5 = alloca ptr, align 8
  store ptr %0, ptr %3, align 8, !tbaa !3
  store ptr %1, ptr %4, align 8, !tbaa !8
  call void @llvm.lifetime.start.p0(i64 8, ptr %5) #4
  %6 = load ptr, ptr %4, align 8, !tbaa !8
  store ptr %6, ptr %5, align 8, !tbaa !10
  %7 = load ptr, ptr %5, align 8, !tbaa !10
  %8 = getelementptr inbounds nuw %struct._lv_switch_t, ptr %7, i32 0, i32 1
  store i32 -1, ptr %8, align 8, !tbaa !12
  %9 = load ptr, ptr %5, align 8, !tbaa !10
  %10 = getelementptr inbounds nuw %struct._lv_switch_t, ptr %9, i32 0, i32 2
  %11 = load i8, ptr %10, align 4
  %12 = and i8 %11, -8
  %13 = or i8 %12, 0
  store i8 %13, ptr %10, align 4
  %14 = load ptr, ptr %4, align 8, !tbaa !8
  call void @lv_obj_remove_flag(ptr noundef %14, i32 noundef 16)
  %15 = load ptr, ptr %4, align 8, !tbaa !8
  call void @lv_obj_add_flag(ptr noundef %15, i32 noundef 8)
  %16 = load ptr, ptr %4, align 8, !tbaa !8
  call void @lv_obj_add_flag(ptr noundef %16, i32 noundef 1024)
  call void @llvm.lifetime.end.p0(i64 8, ptr %5) #4
  ret void
}