; Function Attrs: nounwind uwtable
define internal void @lv_switch_constructor(ptr readnone captures(none) %0, ptr noundef initializes((64, 68)) %1) #0 {
  %3 = getelementptr inbounds nuw i8, ptr %1, i64 64
  store i32 -1, ptr %3, align 8, !tbaa !3
  %4 = getelementptr inbounds nuw i8, ptr %1, i64 68
  %5 = load i8, ptr %4, align 4
  %6 = and i8 %5, -8
  store i8 %6, ptr %4, align 4
  tail call void @lv_obj_remove_flag(ptr noundef %1, i32 noundef 16) #5
  tail call void @lv_obj_add_flag(ptr noundef %1, i32 noundef 8) #5
  tail call void @lv_obj_add_flag(ptr noundef %1, i32 noundef 1024) #5
  ret void
}